target datalayout = "e-m:e-p270:32:32-p271:32:32-p272:64:64-i64:64-i128:128-f80:128-n8:16:32:64-S128"
target triple = "x86_64-pc-linux-gnu"

%struct.CF2_StackNumber_ = type { %union.anon.0, i32 }
%union.anon.0 = type { i32 }
%struct.CF2_StackRec_ = type { ptr, ptr, ptr, ptr, i32 }

; Function Attrs: nounwind uwtable
define internal void @cf2_setError(ptr noundef %0, i32 noundef %1) #0 {
  %3 = alloca ptr, align 8
  %4 = alloca i32, align 4
  store ptr %0, ptr %3, align 8
  store i32 %1, ptr %4, align 4
  %5 = load ptr, ptr %3, align 8
  %6 = icmp ne ptr %5, null
  br i1 %6, label %7, label %14

7:                                                ; preds = %2
  %8 = load ptr, ptr %3, align 8
  %9 = load i32, ptr %8, align 4
  %10 = icmp ne i32 %9, 0
  br i1 %10, label %14, label %11

11:                                               ; preds = %7
  %12 = load i32, ptr %4, align 4
  %13 = load ptr, ptr %3, align 8
  store i32 %12, ptr %13, align 4
  br label %14

14:                                               ; preds = %11, %7, %2
  ret void
}

; Function Attrs: nounwind uwtable
define internal i32 @cf2_stack_popInt(ptr noundef %0) #0 {
  %2 = alloca i32, align 4
  %3 = alloca ptr, align 8
  store ptr %0, ptr %3, align 8
  %4 = load ptr, ptr %3, align 8
  %5 = getelementptr inbounds %struct.CF2_StackRec_, ptr %4, i32 0, i32 3
  %6 = load ptr, ptr %5, align 8
  %7 = load ptr, ptr %3, align 8
  %8 = getelementptr inbounds %struct.CF2_StackRec_, ptr %7, i32 0, i32 2
  %9 = load ptr, ptr %8, align 8
  %10 = icmp eq ptr %6, %9
  br i1 %10, label %11, label %15

11:                                               ; preds = %1
  %12 = load ptr, ptr %3, align 8
  %13 = getelementptr inbounds %struct.CF2_StackRec_, ptr %12, i32 0, i32 1
  %14 = load ptr, ptr %13, align 8
  call void @cf2_setError(ptr noundef %14, i32 noundef 161)
  store i32 0, ptr %2, align 4
  br label %37

15:                                               ; preds = %1
  %16 = load ptr, ptr %3, align 8
  %17 = getelementptr inbounds %struct.CF2_StackRec_, ptr %16, i32 0, i32 3
  %18 = load ptr, ptr %17, align 8
  %19 = getelementptr inbounds %struct.CF2_StackNumber_, ptr %18, i64 -1
  %20 = getelementptr inbounds %struct.CF2_StackNumber_, ptr %19, i32 0, i32 1
  %21 = load i32, ptr %20, align 4
  %22 = icmp ne i32 %21, 2
  br i1 %22, label %23, label %27

23:                                               ; preds = %15
  %24 = load ptr, ptr %3, align 8
  %25 = getelementptr inbounds %struct.CF2_StackRec_, ptr %24, i32 0, i32 1
  %26 = load ptr, ptr %25, align 8
  call void @cf2_setError(ptr noundef %26, i32 noundef 160)
  store i32 0, ptr %2, align 4
  br label %37

27:                                               ; preds = %15
  %28 = load ptr, ptr %3, align 8
  %29 = getelementptr inbounds %struct.CF2_StackRec_, ptr %28, i32 0, i32 3
  %30 = load ptr, ptr %29, align 8
  %31 = getelementptr inbounds %struct.CF2_StackNumber_, ptr %30, i32 -1
  store ptr %31, ptr %29, align 8
  %32 = load ptr, ptr %3, align 8
  %33 = getelementptr inbounds %struct.CF2_StackRec_, ptr %32, i32 0, i32 3
  %34 = load ptr, ptr %33, align 8
  %35 = getelementptr inbounds %struct.CF2_StackNumber_, ptr %34, i32 0, i32 0
  %36 = load i32, ptr %35, align 4
  store i32 %36, ptr %2, align 4
  br label %37

37:                                               ; preds = %27, %23, %11
  %38 = load i32, ptr %2, align 4
  ret i32 %38
}