; Function Attrs: mustprogress nofree norecurse nosync nounwind willreturn memory(readwrite, inaccessiblemem: none) uwtable
define internal fastcc i32 @cf2_stack_popInt(ptr noundef nonnull captures(none) %0) unnamed_addr #5 {
  %2 = getelementptr inbounds nuw i8, ptr %0, i64 24
  %3 = load ptr, ptr %2, align 8
  %4 = getelementptr inbounds nuw i8, ptr %0, i64 16
  %5 = load ptr, ptr %4, align 8
  %6 = icmp eq ptr %3, %5
  br i1 %6, label %7, label %13

7:                                                ; preds = %1
  %8 = getelementptr inbounds nuw i8, ptr %0, i64 8
  %9 = load ptr, ptr %8, align 8
  %.not.i = icmp eq ptr %9, null
  br i1 %.not.i, label %cf2_setError.exit, label %10

10:                                               ; preds = %7
  %11 = load i32, ptr %9, align 4
  %.not3.i = icmp eq i32 %11, 0
  br i1 %.not3.i, label %12, label %cf2_setError.exit

12:                                               ; preds = %10
  store i32 161, ptr %9, align 4
  br label %cf2_setError.exit

13:                                               ; preds = %1
  %14 = getelementptr inbounds i8, ptr %3, i64 -4
  %15 = load i32, ptr %14, align 4
  %.not = icmp eq i32 %15, 2
  br i1 %.not, label %22, label %16

16:                                               ; preds = %13
  %17 = getelementptr inbounds nuw i8, ptr %0, i64 8
  %18 = load ptr, ptr %17, align 8
  %.not.i8 = icmp eq ptr %18, null
  br i1 %.not.i8, label %cf2_setError.exit, label %19

19:                                               ; preds = %16
  %20 = load i32, ptr %18, align 4
  %.not3.i9 = icmp eq i32 %20, 0
  br i1 %.not3.i9, label %21, label %cf2_setError.exit

21:                                               ; preds = %19
  store i32 160, ptr %18, align 4
  br label %cf2_setError.exit

22:                                               ; preds = %13
  %23 = getelementptr inbounds i8, ptr %3, i64 -8
  store ptr %23, ptr %2, align 8
  %24 = load i32, ptr %23, align 4
  br label %cf2_setError.exit

cf2_setError.exit:                                ; preds = %21, %19, %16, %12, %10, %7, %22
  %.0 = phi i32 [ %24, %22 ], [ 0, %7 ], [ 0, %10 ], [ 0, %12 ], [ 0, %16 ], [ 0, %19 ], [ 0, %21 ]
  ret i32 %.0
}